target datalayout = "e-m:e-p270:32:32-p271:32:32-p272:64:64-i64:64-i128:128-f80:128-n8:16:32:64-S128"
target triple = "x86_64-pc-linux-gnu"

%struct.Abc_Frame_t_ = type { ptr, ptr, ptr, ptr, ptr, ptr, ptr, ptr, ptr, ptr, i32, i32, i32, i32, i32, ptr, float, float, i32, i32, ptr, ptr, ptr, double, double, ptr, ptr, ptr, ptr, ptr, ptr, ptr, ptr, ptr, ptr, ptr, ptr, float, ptr, i32, ptr, ptr, ptr, ptr, ptr, i32, i32, i32, i32, i32, i32, ptr, ptr, ptr, ptr, ptr, ptr, i32, i32, ptr, ptr, ptr, ptr, ptr, ptr, ptr, ptr, ptr, ptr, ptr, ptr, ptr, ptr, ptr, ptr, ptr, ptr, ptr, ptr, ptr, ptr, ptr, ptr, ptr, ptr, ptr, ptr, ptr, ptr }
%struct.Vec_Ptr_t_ = type { i32, i32, ptr }
%struct.Vec_Int_t_ = type { i32, i32, ptr }

@stderr = external global ptr, align 8
@stdout = external global ptr, align 8

; Function Attrs: inlinehint nounwind uwtable
define internal ptr @Vec_IntAlloc(i32 noundef %0) #1 {
  %2 = alloca i32, align 4
  %3 = alloca ptr, align 8
  store i32 %0, ptr %2, align 4, !tbaa !65
  call void @llvm.lifetime.start.p0(i64 8, ptr %3) #10
  %4 = call noalias ptr @malloc(i64 noundef 16) #13
  store ptr %4, ptr %3, align 8, !tbaa !66
  %5 = load i32, ptr %2, align 4, !tbaa !65
  %6 = icmp sgt i32 %5, 0
  br i1 %6, label %7, label %11

7:                                                ; preds = %1
  %8 = load i32, ptr %2, align 4, !tbaa !65
  %9 = icmp slt i32 %8, 16
  br i1 %9, label %10, label %11

10:                                               ; preds = %7
  store i32 16, ptr %2, align 4, !tbaa !65
  br label %11

11:                                               ; preds = %10, %7, %1
  %12 = load ptr, ptr %3, align 8, !tbaa !66
  %13 = getelementptr inbounds nuw %struct.Vec_Int_t_, ptr %12, i32 0, i32 1
  store i32 0, ptr %13, align 4, !tbaa !92
  %14 = load i32, ptr %2, align 4, !tbaa !65
  %15 = load ptr, ptr %3, align 8, !tbaa !66
  %16 = getelementptr inbounds nuw %struct.Vec_Int_t_, ptr %15, i32 0, i32 0
  store i32 %14, ptr %16, align 8, !tbaa !93
  %17 = load ptr, ptr %3, align 8, !tbaa !66
  %18 = getelementptr inbounds nuw %struct.Vec_Int_t_, ptr %17, i32 0, i32 0
  %19 = load i32, ptr %18, align 8, !tbaa !93
  %20 = icmp ne i32 %19, 0
  br i1 %20, label %21, label %28

21:                                               ; preds = %11
  %22 = load ptr, ptr %3, align 8, !tbaa !66
  %23 = getelementptr inbounds nuw %struct.Vec_Int_t_, ptr %22, i32 0, i32 0
  %24 = load i32, ptr %23, align 8, !tbaa !93
  %25 = sext i32 %24 to i64
  %26 = mul i64 4, %25
  %27 = call noalias ptr @malloc(i64 noundef %26) #13
  br label %29

28:                                               ; preds = %11
  br label %29

29:                                               ; preds = %28, %21
  %30 = phi ptr [ %27, %21 ], [ null, %28 ]
  %31 = load ptr, ptr %3, align 8, !tbaa !66
  %32 = getelementptr inbounds nuw %struct.Vec_Int_t_, ptr %31, i32 0, i32 2
  store ptr %30, ptr %32, align 8, !tbaa !70
  %33 = load ptr, ptr %3, align 8, !tbaa !66
  call void @llvm.lifetime.end.p0(i64 8, ptr %3) #10
  ret ptr %33
}

; Function Attrs: inlinehint nounwind uwtable
define internal ptr @Vec_PtrAlloc(i32 noundef %0) #1 {
  %2 = alloca i32, align 4
  %3 = alloca ptr, align 8
  store i32 %0, ptr %2, align 4, !tbaa !65
  call void @llvm.lifetime.start.p0(i64 8, ptr %3) #10
  %4 = call noalias ptr @malloc(i64 noundef 16) #13
  store ptr %4, ptr %3, align 8, !tbaa !25
  %5 = load i32, ptr %2, align 4, !tbaa !65
  %6 = icmp sgt i32 %5, 0
  br i1 %6, label %7, label %11

7:                                                ; preds = %1
  %8 = load i32, ptr %2, align 4, !tbaa !65
  %9 = icmp slt i32 %8, 8
  br i1 %9, label %10, label %11

10:                                               ; preds = %7
  store i32 8, ptr %2, align 4, !tbaa !65
  br label %11

11:                                               ; preds = %10, %7, %1
  %12 = load ptr, ptr %3, align 8, !tbaa !25
  %13 = getelementptr inbounds nuw %struct.Vec_Ptr_t_, ptr %12, i32 0, i32 1
  store i32 0, ptr %13, align 4, !tbaa !26
  %14 = load i32, ptr %2, align 4, !tbaa !65
  %15 = load ptr, ptr %3, align 8, !tbaa !25
  %16 = getelementptr inbounds nuw %struct.Vec_Ptr_t_, ptr %15, i32 0, i32 0
  store i32 %14, ptr %16, align 8, !tbaa !90
  %17 = load ptr, ptr %3, align 8, !tbaa !25
  %18 = getelementptr inbounds nuw %struct.Vec_Ptr_t_, ptr %17, i32 0, i32 0
  %19 = load i32, ptr %18, align 8, !tbaa !90
  %20 = icmp ne i32 %19, 0
  br i1 %20, label %21, label %28

21:                                               ; preds = %11
  %22 = load ptr, ptr %3, align 8, !tbaa !25
  %23 = getelementptr inbounds nuw %struct.Vec_Ptr_t_, ptr %22, i32 0, i32 0
  %24 = load i32, ptr %23, align 8, !tbaa !90
  %25 = sext i32 %24 to i64
  %26 = mul i64 8, %25
  %27 = call noalias ptr @malloc(i64 noundef %26) #13
  br label %29

28:                                               ; preds = %11
  br label %29

29:                                               ; preds = %28, %21
  %30 = phi ptr [ %27, %21 ], [ null, %28 ]
  %31 = load ptr, ptr %3, align 8, !tbaa !25
  %32 = getelementptr inbounds nuw %struct.Vec_Ptr_t_, ptr %31, i32 0, i32 2
  store ptr %30, ptr %32, align 8, !tbaa !91
  %33 = load ptr, ptr %3, align 8, !tbaa !25
  call void @llvm.lifetime.end.p0(i64 8, ptr %3) #10
  ret ptr %33
}

; Function Attrs: nounwind uwtable
define ptr @Abc_FrameAllocate() #0 {
  %1 = alloca ptr, align 8
  call void @llvm.lifetime.start.p0(i64 8, ptr %1) #10
  %2 = call noalias ptr @calloc(i64 noundef 1, i64 noundef 648) #12
  store ptr %2, ptr %1, align 8, !tbaa !3
  %3 = load ptr, ptr %1, align 8, !tbaa !3
  %4 = call ptr @Abc_UtilsGetVersion(ptr noundef %3)
  %5 = load ptr, ptr %1, align 8, !tbaa !3
  %6 = getelementptr inbounds nuw %struct.Abc_Frame_t_, ptr %5, i32 0, i32 0
  store ptr %4, ptr %6, align 8, !tbaa !83
  %7 = load ptr, ptr @stderr, align 8, !tbaa !84
  %8 = load ptr, ptr %1, align 8, !tbaa !3
  %9 = getelementptr inbounds nuw %struct.Abc_Frame_t_, ptr %8, i32 0, i32 21
  store ptr %7, ptr %9, align 8, !tbaa !85
  %10 = load ptr, ptr @stdout, align 8, !tbaa !84
  %11 = load ptr, ptr %1, align 8, !tbaa !3
  %12 = getelementptr inbounds nuw %struct.Abc_Frame_t_, ptr %11, i32 0, i32 20
  store ptr %10, ptr %12, align 8, !tbaa !86
  %13 = load ptr, ptr %1, align 8, !tbaa !3
  %14 = getelementptr inbounds nuw %struct.Abc_Frame_t_, ptr %13, i32 0, i32 22
  store ptr null, ptr %14, align 8, !tbaa !87
  %15 = load ptr, ptr %1, align 8, !tbaa !3
  %16 = getelementptr inbounds nuw %struct.Abc_Frame_t_, ptr %15, i32 0, i32 57
  store i32 -1, ptr %16, align 8, !tbaa !42
  %17 = load ptr, ptr %1, align 8, !tbaa !3
  %18 = getelementptr inbounds nuw %struct.Abc_Frame_t_, ptr %17, i32 0, i32 58
  store i32 -1, ptr %18, align 4, !tbaa !41
  %19 = load ptr, ptr %1, align 8, !tbaa !3
  %20 = getelementptr inbounds nuw %struct.Abc_Frame_t_, ptr %19, i32 0, i32 10
  store i32 1, ptr %20, align 8, !tbaa !88
  %21 = load ptr, ptr %1, align 8, !tbaa !3
  %22 = getelementptr inbounds nuw %struct.Abc_Frame_t_, ptr %21, i32 0, i32 13
  store i32 0, ptr %22, align 4, !tbaa !76
  %23 = call ptr @Vec_PtrAlloc(i32 noundef 16)
  %24 = load ptr, ptr %1, align 8, !tbaa !3
  %25 = getelementptr inbounds nuw %struct.Abc_Frame_t_, ptr %24, i32 0, i32 25
  store ptr %23, ptr %25, align 8, !tbaa !8
  %26 = call ptr @Vec_IntAlloc(i32 noundef 0)
  %27 = load ptr, ptr %1, align 8, !tbaa !3
  %28 = getelementptr inbounds nuw %struct.Abc_Frame_t_, ptr %27, i32 0, i32 56
  store ptr %26, ptr %28, align 8, !tbaa !47
  %29 = call ptr @Vec_PtrAlloc(i32 noundef 100)
  %30 = load ptr, ptr %1, align 8, !tbaa !3
  %31 = getelementptr inbounds nuw %struct.Abc_Frame_t_, ptr %30, i32 0, i32 59
  store ptr %29, ptr %31, align 8, !tbaa !89
  %32 = load ptr, ptr %1, align 8, !tbaa !3
  call void @llvm.lifetime.end.p0(i64 8, ptr %1) #10
  ret ptr %32
}