; Function Attrs: nounwind uwtable
define noundef ptr @Abc_FrameAllocate() local_unnamed_addr #1 {
  %1 = tail call noalias dereferenceable_or_null(648) ptr @calloc(i64 noundef 1, i64 noundef 648) #21
  %2 = tail call ptr @Abc_UtilsGetVersion(ptr noundef %1) #20
  store ptr %2, ptr %1, align 8, !tbaa !77
  %3 = load ptr, ptr @stderr, align 8, !tbaa !78
  %4 = getelementptr inbounds nuw i8, ptr %1, i64 136
  store ptr %3, ptr %4, align 8, !tbaa !79
  %5 = load ptr, ptr @stdout, align 8, !tbaa !78
  %6 = getelementptr inbounds nuw i8, ptr %1, i64 128
  store ptr %5, ptr %6, align 8, !tbaa !80
  %7 = getelementptr inbounds nuw i8, ptr %1, i64 144
  store ptr null, ptr %7, align 8, !tbaa !81
  %8 = getelementptr inbounds nuw i8, ptr %1, i64 400
  store i32 -1, ptr %8, align 8, !tbaa !40
  %9 = getelementptr inbounds nuw i8, ptr %1, i64 404
  store i32 -1, ptr %9, align 4, !tbaa !39
  %10 = getelementptr inbounds nuw i8, ptr %1, i64 80
  store i32 1, ptr %10, align 8, !tbaa !82
  %11 = getelementptr inbounds nuw i8, ptr %1, i64 92
  store i32 0, ptr %11, align 4, !tbaa !71
  %12 = tail call noalias dereferenceable_or_null(16) ptr @malloc(i64 noundef 16) #22
  %13 = getelementptr inbounds nuw i8, ptr %12, i64 4
  store i32 0, ptr %13, align 4, !tbaa !25
  store i32 16, ptr %12, align 8, !tbaa !83
  %14 = tail call noalias dereferenceable_or_null(128) ptr @malloc(i64 noundef 128) #22
  %15 = getelementptr inbounds nuw i8, ptr %12, i64 8
  store ptr %14, ptr %15, align 8, !tbaa !68
  %16 = getelementptr inbounds nuw i8, ptr %1, i64 168
  store ptr %12, ptr %16, align 8, !tbaa !8
  %calloc.i = tail call noalias noundef dereferenceable_or_null(16) ptr @calloc(i64 1, i64 16)
  %17 = getelementptr inbounds nuw i8, ptr %1, i64 392
  store ptr %calloc.i, ptr %17, align 8, !tbaa !45
  %18 = tail call noalias dereferenceable_or_null(16) ptr @malloc(i64 noundef 16) #22
  %19 = getelementptr inbounds nuw i8, ptr %18, i64 4
  store i32 0, ptr %19, align 4, !tbaa !25
  store i32 100, ptr %18, align 8, !tbaa !83
  %20 = tail call noalias dereferenceable_or_null(800) ptr @malloc(i64 noundef 800) #22
  %21 = getelementptr inbounds nuw i8, ptr %18, i64 8
  store ptr %20, ptr %21, align 8, !tbaa !68
  %22 = getelementptr inbounds nuw i8, ptr %1, i64 408
  store ptr %18, ptr %22, align 8, !tbaa !84
  ret ptr %1
}